target datalayout = "e-m:e-p270:32:32-p271:32:32-p272:64:64-i64:64-i128:128-f80:128-n8:16:32:64-S128"
target triple = "x86_64-pc-linux-gnu"

%struct.pmix_list_t = type { %struct.pmix_object_t, %struct.pmix_list_item_t, i64 }
%struct.pmix_object_t = type { %union.pthread_mutex_t, ptr, i32, %struct.pmix_tma }
%union.pthread_mutex_t = type { %struct.__pthread_mutex_s }
%struct.__pthread_mutex_s = type { i32, i32, i32, i32, i32, i16, i16, %struct.__pthread_internal_list }
%struct.__pthread_internal_list = type { ptr, ptr }
%struct.pmix_tma = type { ptr, ptr, ptr, ptr, ptr, ptr, ptr, ptr }
%struct.pmix_list_item_t = type { %struct.pmix_object_t, ptr, ptr, i32 }
%struct.pmix_class_t = type { ptr, ptr, ptr, ptr, i32, i32, ptr, ptr, i64 }
%struct.pmix_iof_flags_t = type { i8, i8, i8, i8, i8, i8, i8, ptr, ptr, i8, i8, i8, i8, i8, i8 }
%struct.pmdl_nspace_t = type { %struct.pmix_list_item_t, [256 x i8], i8, i32, i32, i32, i32 }
%struct.pmix_namespace_t = type { %struct.pmix_list_item_t, ptr, %struct.anon, i32, i64, i64, i8, i8, ptr, i64, i64, %struct.pmix_list_t, %struct.pmix_personality_t, %struct.pmix_epilog_t, %struct.pmix_list_t, %struct.pmix_iof_flags_t, %struct.pmix_list_t }
%struct.anon = type { i8, i8, i8 }
%struct.pmix_personality_t = type { i8, ptr, ptr, ptr }
%struct.pmix_epilog_t = type { i32, i32, %struct.pmix_list_t, %struct.pmix_list_t, %struct.pmix_list_t }

@mynspaces = internal global %struct.pmix_list_t zeroinitializer, align 8
@.str.2 = private unnamed_addr constant [21 x i8] c"pthread_mutex_lock()\00", align 1

; Function Attrs: inlinehint nounwind uwtable
define internal void @pmix_tma_free(ptr noundef %0, ptr noundef %1) #2 {
  %3 = alloca ptr, align 8
  %4 = alloca ptr, align 8
  store ptr %0, ptr %3, align 8, !tbaa !122
  store ptr %1, ptr %4, align 8, !tbaa !32
  %5 = load ptr, ptr %3, align 8, !tbaa !122
  %6 = icmp ne ptr null, %5
  br i1 %6, label %7, label %13

7:                                                ; preds = %2
  %8 = load ptr, ptr %3, align 8, !tbaa !122
  %9 = getelementptr inbounds nuw %struct.pmix_tma, ptr %8, i32 0, i32 5
  %10 = load ptr, ptr %9, align 8, !tbaa !138
  %11 = load ptr, ptr %3, align 8, !tbaa !122
  %12 = load ptr, ptr %4, align 8, !tbaa !32
  call void %10(ptr noundef %11, ptr noundef %12)
  br label %15

13:                                               ; preds = %2
  %14 = load ptr, ptr %4, align 8, !tbaa !32
  call void @free(ptr noundef %14) #11
  br label %15

15:                                               ; preds = %13, %7
  ret void
}

; Function Attrs: inlinehint nounwind uwtable
define internal void @pmix_obj_run_destructors(ptr noundef %0) #2 {
  %2 = alloca ptr, align 8
  %3 = alloca ptr, align 8
  store ptr %0, ptr %2, align 8, !tbaa !27
  call void @llvm.lifetime.start.p0(i64 8, ptr %3) #11
  %4 = load ptr, ptr %2, align 8, !tbaa !27
  %5 = getelementptr inbounds nuw %struct.pmix_object_t, ptr %4, i32 0, i32 1
  %6 = load ptr, ptr %5, align 8, !tbaa !24
  %7 = getelementptr inbounds nuw %struct.pmix_class_t, ptr %6, i32 0, i32 7
  %8 = load ptr, ptr %7, align 8, !tbaa !136
  store ptr %8, ptr %3, align 8, !tbaa !32
  br label %9

9:                                                ; preds = %13, %1
  %10 = load ptr, ptr %3, align 8, !tbaa !32
  %11 = load ptr, ptr %10, align 8, !tbaa !32
  %12 = icmp ne ptr null, %11
  br i1 %12, label %13, label %19

13:                                               ; preds = %9
  %14 = load ptr, ptr %3, align 8, !tbaa !32
  %15 = load ptr, ptr %14, align 8, !tbaa !32
  %16 = load ptr, ptr %2, align 8, !tbaa !27
  call void %15(ptr noundef %16)
  %17 = load ptr, ptr %3, align 8, !tbaa !32
  %18 = getelementptr inbounds nuw ptr, ptr %17, i32 1
  store ptr %18, ptr %3, align 8, !tbaa !32
  br label %9, !llvm.loop !137

19:                                               ; preds = %9
  call void @llvm.lifetime.end.p0(i64 8, ptr %3) #11
  ret void
}

; Function Attrs: alwaysinline nounwind uwtable
define internal i32 @pmix_obj_update(ptr noundef %0, i32 noundef %1) #5 {
  %3 = alloca ptr, align 8
  %4 = alloca i32, align 4
  %5 = alloca i32, align 4
  store ptr %0, ptr %3, align 8, !tbaa !27
  store i32 %1, ptr %4, align 4, !tbaa !21
  call void @llvm.lifetime.start.p0(i64 4, ptr %5) #11
  %6 = load ptr, ptr %3, align 8, !tbaa !27
  %7 = getelementptr inbounds nuw %struct.pmix_object_t, ptr %6, i32 0, i32 0
  %8 = call i32 @pthread_mutex_lock(ptr noundef %7) #11
  store i32 %8, ptr %5, align 4, !tbaa !21
  %9 = load i32, ptr %5, align 4, !tbaa !21
  %10 = icmp eq i32 %9, 35
  br i1 %10, label %11, label %14

11:                                               ; preds = %2
  %12 = load i32, ptr %5, align 4, !tbaa !21
  %13 = call ptr @__errno_location() #13
  store i32 %12, ptr %13, align 4, !tbaa !21
  call void @perror(ptr noundef @.str.2)
  call void @abort() #14
  unreachable

14:                                               ; preds = %2
  %15 = load i32, ptr %4, align 4, !tbaa !21
  %16 = load ptr, ptr %3, align 8, !tbaa !27
  %17 = getelementptr inbounds nuw %struct.pmix_object_t, ptr %16, i32 0, i32 2
  %18 = load i32, ptr %17, align 8, !tbaa !25
  %19 = add nsw i32 %18, %15
  store i32 %19, ptr %17, align 8, !tbaa !25
  store i32 %19, ptr %5, align 4, !tbaa !21
  %20 = load ptr, ptr %3, align 8, !tbaa !27
  %21 = getelementptr inbounds nuw %struct.pmix_object_t, ptr %20, i32 0, i32 0
  %22 = call i32 @pthread_mutex_unlock(ptr noundef %21) #11
  %23 = load i32, ptr %5, align 4, !tbaa !21
  call void @llvm.lifetime.end.p0(i64 4, ptr %5) #11
  ret i32 %23
}

; Function Attrs: inlinehint nounwind uwtable
define internal ptr @pmix_list_remove_item(ptr noundef %0, ptr noundef %1) #2 {
  %3 = alloca ptr, align 8
  %4 = alloca ptr, align 8
  store ptr %0, ptr %3, align 8, !tbaa !36
  store ptr %1, ptr %4, align 8, !tbaa !26
  %5 = load ptr, ptr %4, align 8, !tbaa !26
  %6 = getelementptr inbounds nuw %struct.pmix_list_item_t, ptr %5, i32 0, i32 1
  %7 = load ptr, ptr %6, align 8, !tbaa !52
  %8 = load ptr, ptr %4, align 8, !tbaa !26
  %9 = getelementptr inbounds nuw %struct.pmix_list_item_t, ptr %8, i32 0, i32 2
  %10 = load ptr, ptr %9, align 8, !tbaa !135
  %11 = getelementptr inbounds nuw %struct.pmix_list_item_t, ptr %10, i32 0, i32 1
  store volatile ptr %7, ptr %11, align 8, !tbaa !52
  %12 = load ptr, ptr %4, align 8, !tbaa !26
  %13 = getelementptr inbounds nuw %struct.pmix_list_item_t, ptr %12, i32 0, i32 2
  %14 = load ptr, ptr %13, align 8, !tbaa !135
  %15 = load ptr, ptr %4, align 8, !tbaa !26
  %16 = getelementptr inbounds nuw %struct.pmix_list_item_t, ptr %15, i32 0, i32 1
  %17 = load ptr, ptr %16, align 8, !tbaa !52
  %18 = getelementptr inbounds nuw %struct.pmix_list_item_t, ptr %17, i32 0, i32 2
  store volatile ptr %14, ptr %18, align 8, !tbaa !135
  %19 = load ptr, ptr %3, align 8, !tbaa !36
  %20 = getelementptr inbounds nuw %struct.pmix_list_t, ptr %19, i32 0, i32 2
  %21 = load volatile i64, ptr %20, align 8, !tbaa !134
  %22 = add i64 %21, -1
  store volatile i64 %22, ptr %20, align 8, !tbaa !134
  %23 = load ptr, ptr %4, align 8, !tbaa !26
  %24 = getelementptr inbounds nuw %struct.pmix_list_item_t, ptr %23, i32 0, i32 2
  %25 = load ptr, ptr %24, align 8, !tbaa !135
  ret ptr %25
}

; Function Attrs: nounwind uwtable
define internal void @deregister_nspace(ptr noundef %0) #0 {
  %2 = alloca ptr, align 8
  %3 = alloca ptr, align 8
  %4 = alloca ptr, align 8
  %5 = alloca i32, align 4
  store ptr %0, ptr %2, align 8, !tbaa !32
  call void @llvm.lifetime.start.p0(i64 8, ptr %3) #11
  %6 = load ptr, ptr getelementptr inbounds nuw (%struct.pmix_list_item_t, ptr getelementptr inbounds nuw (%struct.pmix_list_t, ptr @mynspaces, i32 0, i32 1), i32 0, i32 1), align 8, !tbaa !45
  store ptr %6, ptr %3, align 8, !tbaa !32
  br label %7

7:                                                ; preds = %45, %1
  %8 = load ptr, ptr %3, align 8, !tbaa !32
  %9 = icmp ne ptr %8, getelementptr inbounds nuw (%struct.pmix_list_t, ptr @mynspaces, i32 0, i32 1)
  br i1 %9, label %10, label %49

10:                                               ; preds = %7
  %11 = load ptr, ptr %3, align 8, !tbaa !32
  %12 = getelementptr inbounds nuw %struct.pmdl_nspace_t, ptr %11, i32 0, i32 1
  %13 = getelementptr inbounds [256 x i8], ptr %12, i64 0, i64 0
  %14 = load ptr, ptr %2, align 8, !tbaa !32
  %15 = getelementptr inbounds nuw %struct.pmix_namespace_t, ptr %14, i32 0, i32 1
  %16 = load ptr, ptr %15, align 8, !tbaa !46
  %17 = call zeroext i1 @PMIx_Check_nspace(ptr noundef %13, ptr noundef %16)
  br i1 %17, label %18, label %44

18:                                               ; preds = %10
  %19 = load ptr, ptr %3, align 8, !tbaa !32
  %20 = getelementptr inbounds nuw %struct.pmdl_nspace_t, ptr %19, i32 0, i32 0
  %21 = call ptr @pmix_list_remove_item(ptr noundef @mynspaces, ptr noundef %20)
  br label %22

22:                                               ; preds = %18
  call void @llvm.lifetime.start.p0(i64 8, ptr %4) #11
  %23 = load ptr, ptr %3, align 8, !tbaa !32
  store ptr %23, ptr %4, align 8, !tbaa !27
  %24 = load ptr, ptr %4, align 8, !tbaa !27
  %25 = call i32 @pmix_obj_update(ptr noundef %24, i32 noundef -1)
  %26 = icmp eq i32 0, %25
  br i1 %26, label %27, label %41

27:                                               ; preds = %22
  %28 = load ptr, ptr %4, align 8, !tbaa !27
  call void @pmix_obj_run_destructors(ptr noundef %28)
  %29 = load ptr, ptr %4, align 8, !tbaa !27
  %30 = getelementptr inbounds nuw %struct.pmix_object_t, ptr %29, i32 0, i32 3
  %31 = getelementptr inbounds nuw %struct.pmix_tma, ptr %30, i32 0, i32 5
  %32 = load ptr, ptr %31, align 8, !tbaa !29
  %33 = icmp ne ptr null, %32
  br i1 %33, label %34, label %38

34:                                               ; preds = %27
  %35 = load ptr, ptr %4, align 8, !tbaa !27
  %36 = getelementptr inbounds nuw %struct.pmix_object_t, ptr %35, i32 0, i32 3
  %37 = load ptr, ptr %3, align 8, !tbaa !32
  call void @pmix_tma_free(ptr noundef %36, ptr noundef %37)
  br label %40

38:                                               ; preds = %27
  %39 = load ptr, ptr %3, align 8, !tbaa !32
  call void @free(ptr noundef %39) #11
  br label %40

40:                                               ; preds = %38, %34
  store ptr null, ptr %3, align 8, !tbaa !32
  br label %41

41:                                               ; preds = %40, %22
  call void @llvm.lifetime.end.p0(i64 8, ptr %4) #11
  br label %42

42:                                               ; preds = %41
  br label %43

43:                                               ; preds = %42
  store i32 1, ptr %5, align 4
  br label %50

44:                                               ; preds = %10
  br label %45

45:                                               ; preds = %44
  %46 = load ptr, ptr %3, align 8, !tbaa !32
  %47 = getelementptr inbounds nuw %struct.pmix_list_item_t, ptr %46, i32 0, i32 1
  %48 = load ptr, ptr %47, align 8, !tbaa !52
  store ptr %48, ptr %3, align 8, !tbaa !32
  br label %7, !llvm.loop !121

49:                                               ; preds = %7
  store i32 0, ptr %5, align 4
  br label %50

50:                                               ; preds = %49, %43
  call void @llvm.lifetime.end.p0(i64 8, ptr %3) #11
  %51 = load i32, ptr %5, align 4
  switch i32 %51, label %53 [
    i32 0, label %52
    i32 1, label %52
  ]

52:                                               ; preds = %50, %50
  ret void

53:                                               ; preds = %50
  unreachable
}