; Function Attrs: nounwind uwtable
define internal void @deregister_nspace(ptr noundef readonly captures(none) %0) #0 {
  %.015 = load ptr, ptr getelementptr inbounds nuw (i8, ptr @mynspaces, i64 240), align 8, !tbaa !33
  %.not16 = icmp eq ptr %.015, getelementptr inbounds nuw (i8, ptr @mynspaces, i64 120)
  br i1 %.not16, label %.loopexit, label %.lr.ph

.lr.ph:                                           ; preds = %1
  %2 = getelementptr inbounds nuw i8, ptr %0, i64 144
  br label %3

3:                                                ; preds = %.lr.ph, %39
  %.017 = phi ptr [ %.015, %.lr.ph ], [ %8, %39 ]
  %4 = getelementptr inbounds nuw i8, ptr %.017, i64 144
  %5 = load ptr, ptr %2, align 8, !tbaa !43
  %6 = tail call zeroext i1 @PMIx_Check_nspace(ptr noundef nonnull %4, ptr noundef %5) #13
  %7 = getelementptr inbounds nuw i8, ptr %.017, i64 120
  %8 = load ptr, ptr %7, align 8, !tbaa !33
  br i1 %6, label %9, label %39

9:                                                ; preds = %3
  %10 = getelementptr inbounds nuw i8, ptr %.017, i64 128
  %11 = load ptr, ptr %10, align 8, !tbaa !32
  %12 = getelementptr inbounds nuw i8, ptr %11, i64 120
  store volatile ptr %8, ptr %12, align 8, !tbaa !33
  %13 = getelementptr inbounds nuw i8, ptr %8, i64 128
  store volatile ptr %11, ptr %13, align 8, !tbaa !32
  %14 = load volatile i64, ptr getelementptr inbounds nuw (i8, ptr @mynspaces, i64 264), align 8, !tbaa !30
  %15 = add i64 %14, -1
  store volatile i64 %15, ptr getelementptr inbounds nuw (i8, ptr @mynspaces, i64 264), align 8, !tbaa !30
  %16 = tail call i32 @pthread_mutex_lock(ptr noundef %.017) #13
  %17 = icmp eq i32 %16, 35
  br i1 %17, label %18, label %pmix_obj_update.exit

18:                                               ; preds = %9
  %19 = tail call ptr @__errno_location() #14
  store i32 35, ptr %19, align 4, !tbaa !21
  tail call void @perror(ptr noundef nonnull @.str.2) #15
  tail call void @abort() #16
  unreachable

pmix_obj_update.exit:                             ; preds = %9
  %20 = getelementptr inbounds nuw i8, ptr %.017, i64 48
  %21 = load i32, ptr %20, align 8, !tbaa !25
  %22 = add nsw i32 %21, -1
  store i32 %22, ptr %20, align 8, !tbaa !25
  %23 = tail call i32 @pthread_mutex_unlock(ptr noundef %.017) #13
  %24 = icmp eq i32 %22, 0
  br i1 %24, label %25, label %.loopexit

25:                                               ; preds = %pmix_obj_update.exit
  %26 = getelementptr inbounds nuw i8, ptr %.017, i64 40
  %27 = load ptr, ptr %26, align 8, !tbaa !24
  %28 = getelementptr inbounds nuw i8, ptr %27, i64 48
  %29 = load ptr, ptr %28, align 8, !tbaa !34
  %30 = load ptr, ptr %29, align 8, !tbaa !27
  %.not6.i = icmp eq ptr %30, null
  br i1 %.not6.i, label %pmix_obj_run_destructors.exit, label %.lr.ph.i

.lr.ph.i:                                         ; preds = %25, %.lr.ph.i
  %31 = phi ptr [ %33, %.lr.ph.i ], [ %30, %25 ]
  %.07.i = phi ptr [ %32, %.lr.ph.i ], [ %29, %25 ]
  tail call void %31(ptr noundef %.017) #13
  %32 = getelementptr inbounds nuw i8, ptr %.07.i, i64 8
  %33 = load ptr, ptr %32, align 8, !tbaa !27
  %.not.i = icmp eq ptr %33, null
  br i1 %.not.i, label %pmix_obj_run_destructors.exit, label %.lr.ph.i, !llvm.loop !35

pmix_obj_run_destructors.exit:                    ; preds = %.lr.ph.i, %25
  %34 = getelementptr inbounds nuw i8, ptr %.017, i64 96
  %35 = load ptr, ptr %34, align 8, !tbaa !36
  %.not12 = icmp eq ptr %35, null
  br i1 %.not12, label %38, label %36

36:                                               ; preds = %pmix_obj_run_destructors.exit
  %37 = getelementptr inbounds nuw i8, ptr %.017, i64 56
  tail call void %35(ptr noundef nonnull %37, ptr noundef nonnull %.017) #13
  br label %.loopexit

38:                                               ; preds = %pmix_obj_run_destructors.exit
  tail call void @free(ptr noundef nonnull %.017) #13
  br label %.loopexit

39:                                               ; preds = %3
  %.not = icmp eq ptr %8, getelementptr inbounds nuw (i8, ptr @mynspaces, i64 120)
  br i1 %.not, label %.loopexit, label %3, !llvm.loop !118

.loopexit:                                        ; preds = %39, %1, %pmix_obj_update.exit, %38, %36
  ret void
}